target datalayout = "e-m:e-p270:32:32-p271:32:32-p272:64:64-i64:64-i128:128-f80:128-n8:16:32:64-S128"
target triple = "x86_64-pc-linux-gnu"

@dvb_s2_default_modeadapt = internal global i32 3, align 4
@dvb_s2_try_all_modeadapt = internal global i8 1, align 1

; Function Attrs: null_pointer_is_valid sspstrong uwtable
define internal zeroext i1 @dissect_dvb_s2_modeadapt_heur(ptr noundef %0, ptr noundef %1, ptr noundef %2, ptr noundef %3) #0 {
  %5 = alloca i1, align 1
  %6 = alloca ptr, align 8
  %7 = alloca ptr, align 8
  %8 = alloca ptr, align 8
  %9 = alloca ptr, align 8
  %10 = alloca i32, align 4
  %11 = alloca i32, align 4
  %12 = alloca i32, align 4
  store ptr %0, ptr %6, align 8
  store ptr %1, ptr %7, align 8
  store ptr %2, ptr %8, align 8
  store ptr %3, ptr %9, align 8
  call void @llvm.lifetime.start.p0(i64 4, ptr %10) #10
  %13 = load ptr, ptr %6, align 8
  %14 = call i32 @detect_dvb_s2_modeadapt(ptr noundef %13)
  store i32 %14, ptr %10, align 4
  %15 = load i8, ptr @dvb_s2_try_all_modeadapt, align 1, !range !6, !noundef !7
  %16 = trunc i8 %15 to i1
  br i1 %16, label %17, label %22

17:                                               ; preds = %4
  %18 = load i32, ptr %10, align 4
  %19 = icmp eq i32 %18, 0
  br i1 %19, label %20, label %21

20:                                               ; preds = %17
  store i1 false, ptr %5, align 1
  store i32 1, ptr %11, align 4
  br label %41

21:                                               ; preds = %17
  br label %30

22:                                               ; preds = %4
  %23 = load i32, ptr %10, align 4
  %24 = load i32, ptr @dvb_s2_default_modeadapt, align 4
  %25 = shl i32 1, %24
  %26 = and i32 %23, %25
  %27 = icmp ne i32 %26, 0
  br i1 %27, label %29, label %28

28:                                               ; preds = %22
  store i1 false, ptr %5, align 1
  store i32 1, ptr %11, align 4
  br label %41

29:                                               ; preds = %22
  br label %30

30:                                               ; preds = %29, %21
  call void @llvm.lifetime.start.p0(i64 4, ptr %12) #10
  %31 = load ptr, ptr %6, align 8
  %32 = load ptr, ptr %7, align 8
  %33 = load ptr, ptr %8, align 8
  %34 = load ptr, ptr %9, align 8
  %35 = call i32 @dissect_dvb_s2_modeadapt(ptr noundef %31, ptr noundef %32, ptr noundef %33, ptr noundef %34)
  store i32 %35, ptr %12, align 4
  %36 = load i32, ptr %12, align 4
  %37 = icmp sgt i32 %36, 0
  br i1 %37, label %38, label %39

38:                                               ; preds = %30
  store i1 true, ptr %5, align 1
  store i32 1, ptr %11, align 4
  br label %40

39:                                               ; preds = %30
  store i1 false, ptr %5, align 1
  store i32 1, ptr %11, align 4
  br label %40

40:                                               ; preds = %39, %38
  call void @llvm.lifetime.end.p0(i64 4, ptr %12) #10
  br label %41

41:                                               ; preds = %40, %28, %20
  call void @llvm.lifetime.end.p0(i64 4, ptr %10) #10
  %42 = load i1, ptr %5, align 1
  ret i1 %42
}