; Function Attrs: null_pointer_is_valid sspstrong uwtable
define internal zeroext i1 @dissect_dvb_s2_modeadapt_heur(ptr noundef %0, ptr noundef %1, ptr noundef %2, ptr readnone captures(none) %3) #0 {
  %5 = tail call fastcc i32 @detect_dvb_s2_modeadapt(ptr noundef %0)
  %6 = load i8, ptr @dvb_s2_try_all_modeadapt, align 1, !range !6, !noundef !7
  %7 = trunc nuw i8 %6 to i1
  br i1 %7, label %8, label %10

8:                                                ; preds = %4
  %9 = icmp eq i32 %5, 0
  br i1 %9, label %17, label %14

10:                                               ; preds = %4
  %11 = load i32, ptr @dvb_s2_default_modeadapt, align 4
  %12 = shl nuw i32 1, %11
  %13 = and i32 %12, %5
  %.not = icmp eq i32 %13, 0
  br i1 %.not, label %17, label %14

14:                                               ; preds = %10, %8
  %15 = tail call i32 @dissect_dvb_s2_modeadapt(ptr noundef %0, ptr noundef %1, ptr noundef %2, ptr poison)
  %16 = icmp sgt i32 %15, 0
  br label %17

17:                                               ; preds = %10, %8, %14
  %.0 = phi i1 [ %16, %14 ], [ false, %8 ], [ false, %10 ]
  ret i1 %.0
}